target datalayout = "e-m:e-p270:32:32-p271:32:32-p272:64:64-i64:64-i128:128-f80:128-n8:16:32:64-S128"
target triple = "x86_64-pc-linux-gnu"

%struct.lzma_next_coder_s = type { ptr, i64, i64, ptr, ptr, ptr, ptr, ptr, ptr, ptr }
%struct.lzma_stream_coder = type { i32, %struct.lzma_next_coder_s, %struct.lzma_block, %struct.lzma_stream_flags, ptr, i64, i64, i8, i8, i8, i8, i8, i8, i64, [1024 x i8] }
%struct.lzma_block = type { i32, i32, i32, i64, i64, ptr, [64 x i8], ptr, ptr, ptr, i32, i32, i64, i64, i64, i64, i64, i64, i32, i32, i32, i32, i8, i8, i8, i8, i8, i8, i8, i8 }
%struct.lzma_stream_flags = type { i32, i64, i32, i32, i32, i32, i32, i8, i8, i8, i8, i8, i8, i8, i8, i32, i32 }

; Function Attrs: nounwind uwtable
define internal void @stream_decoder_end(ptr noundef %0, ptr noundef %1) #0 {
  %3 = alloca ptr, align 8
  %4 = alloca ptr, align 8
  %5 = alloca ptr, align 8
  store ptr %0, ptr %3, align 8, !tbaa !9
  store ptr %1, ptr %4, align 8, !tbaa !9
  call void @llvm.lifetime.start.p0(i64 8, ptr %5) #8
  %6 = load ptr, ptr %3, align 8, !tbaa !9
  store ptr %6, ptr %5, align 8, !tbaa !9
  %7 = load ptr, ptr %5, align 8, !tbaa !9
  %8 = getelementptr inbounds nuw %struct.lzma_stream_coder, ptr %7, i32 0, i32 1
  %9 = load ptr, ptr %4, align 8, !tbaa !9
  call void @lzma_next_end(ptr noundef %8, ptr noundef %9)
  %10 = load ptr, ptr %5, align 8, !tbaa !9
  %11 = getelementptr inbounds nuw %struct.lzma_stream_coder, ptr %10, i32 0, i32 4
  %12 = load ptr, ptr %11, align 8, !tbaa !23
  %13 = load ptr, ptr %4, align 8, !tbaa !9
  call void @lzma_index_hash_end(ptr noundef %12, ptr noundef %13) #8
  %14 = load ptr, ptr %5, align 8, !tbaa !9
  %15 = load ptr, ptr %4, align 8, !tbaa !9
  call void @lzma_free(ptr noundef %14, ptr noundef %15)
  call void @llvm.lifetime.end.p0(i64 8, ptr %5) #8
  ret void
}