; Function Attrs: nounwind uwtable
define internal void @stream_decoder_end(ptr noundef %0, ptr noundef %1) #0 {
  %3 = getelementptr inbounds nuw i8, ptr %0, i64 8
  tail call void @lzma_next_end(ptr noundef nonnull %3, ptr noundef %1) #10
  %4 = getelementptr inbounds nuw i8, ptr %0, i64 352
  %5 = load ptr, ptr %4, align 8, !tbaa !11
  tail call void @lzma_index_hash_end(ptr noundef %5, ptr noundef %1) #10
  tail call void @lzma_free(ptr noundef %0, ptr noundef %1) #10
  ret void
}